; ModuleID = '11/838.c'
source_filename = "11/838.c"
target datalayout = "e-m:e-p270:32:32-p271:32:32-p272:64:64-i64:64-f80:128-n8:16:32:64-S128"
target triple = "x86_64-pc-linux-gnu"

@.str = private unnamed_addr constant [9 x i8] c"%d %d %d\00", align 1
@.str.1 = private unnamed_addr constant [4 x i8] c"%d\0A\00", align 1

; Function Attrs: noinline nounwind uwtable
define dso_local i32 @isrn(i32 %0) #0 {
  %2 = alloca i32, align 4
  %3 = alloca i32, align 4
  store i32 %0, i32* %3, align 4
  %4 = load i32, i32* %3, align 4
  %5 = srem i32 %4, 400
  %6 = icmp eq i32 %5, 0
  br i1 %6, label %7, label %8

7:                                                ; preds = %1
  store i32 1, i32* %2, align 4
  br label %19

8:                                                ; preds = %1
  %9 = load i32, i32* %3, align 4
  %10 = srem i32 %9, 100
  %11 = icmp eq i32 %10, 0
  br i1 %11, label %12, label %13

12:                                               ; preds = %8
  store i32 0, i32* %2, align 4
  br label %19

13:                                               ; preds = %8
  %14 = load i32, i32* %3, align 4
  %15 = srem i32 %14, 4
  %16 = icmp eq i32 %15, 0
  br i1 %16, label %17, label %18

17:                                               ; preds = %13
  store i32 1, i32* %2, align 4
  br label %19

18:                                               ; preds = %13
  store i32 0, i32* %2, align 4
  br label %19

19:                                               ; preds = %18, %17, %12, %7
  %20 = load i32, i32* %2, align 4
  ret i32 %20
}

; Function Attrs: noinline nounwind uwtable
define dso_local void @main() #0 {
  %1 = alloca i32, align 4
  %2 = alloca i32, align 4
  %3 = alloca i32, align 4
  %4 = alloca i32, align 4
  %5 = alloca i32, align 4
  store i32 0, i32* %4, align 4
  %6 = call i32 (i8*, ...) @__isoc99_scanf(i8* getelementptr inbounds ([9 x i8], [9 x i8]* @.str, i64 0, i64 0), i32* %1, i32* %2, i32* %3)
  store i32 1, i32* %5, align 4
  br label %7

7:                                                ; preds = %62, %0
  %8 = load i32, i32* %5, align 4
  %9 = load i32, i32* %2, align 4
  %10 = icmp slt i32 %8, %9
  br i1 %10, label %11, label %65

11:                                               ; preds = %7
  %12 = load i32, i32* %5, align 4
  %13 = icmp eq i32 %12, 1
  br i1 %13, label %29, label %14

14:                                               ; preds = %11
  %15 = load i32, i32* %5, align 4
  %16 = icmp eq i32 %15, 3
  br i1 %16, label %29, label %17

17:                                               ; preds = %14
  %18 = load i32, i32* %5, align 4
  %19 = icmp eq i32 %18, 5
  br i1 %19, label %29, label %20

20:                                               ; preds = %17
  %21 = load i32, i32* %5, align 4
  %22 = icmp eq i32 %21, 7
  br i1 %22, label %29, label %23

23:                                               ; preds = %20
  %24 = load i32, i32* %5, align 4
  %25 = icmp eq i32 %24, 8
  br i1 %25, label %29, label %26

26:                                               ; preds = %23
  %27 = load i32, i32* %5, align 4
  %28 = icmp eq i32 %27, 10
  br i1 %28, label %29, label %32

29:                                               ; preds = %26, %23, %20, %17, %14, %11
  %30 = load i32, i32* %4, align 4
  %31 = add nsw i32 %30, 31
  store i32 %31, i32* %4, align 4
  br label %32

32:                                               ; preds = %29, %26
  %33 = load i32, i32* %5, align 4
  %34 = icmp eq i32 %33, 4
  br i1 %34, label %44, label %35

35:                                               ; preds = %32
  %36 = load i32, i32* %5, align 4
  %37 = icmp eq i32 %36, 6
  br i1 %37, label %44, label %38

38:                                               ; preds = %35
  %39 = load i32, i32* %5, align 4
  %40 = icmp eq i32 %39, 9
  br i1 %40, label %44, label %41

41:                                               ; preds = %38
  %42 = load i32, i32* %5, align 4
  %43 = icmp eq i32 %42, 11
  br i1 %43, label %44, label %47

44:                                               ; preds = %41, %38, %35, %32
  %45 = load i32, i32* %4, align 4
  %46 = add nsw i32 %45, 30
  store i32 %46, i32* %4, align 4
  br label %47

47:                                               ; preds = %44, %41
  %48 = load i32, i32* %5, align 4
  %49 = icmp eq i32 %48, 2
  br i1 %49, label %50, label %61

50:                                               ; preds = %47
  %51 = load i32, i32* %1, align 4
  %52 = call i32 @isrn(i32 %51)
  %53 = icmp ne i32 %52, 0
  br i1 %53, label %54, label %57

54:                                               ; preds = %50
  %55 = load i32, i32* %4, align 4
  %56 = add nsw i32 %55, 29
  store i32 %56, i32* %4, align 4
  br label %60

57:                                               ; preds = %50
  %58 = load i32, i32* %4, align 4
  %59 = add nsw i32 %58, 28
  store i32 %59, i32* %4, align 4
  br label %60

60:                                               ; preds = %57, %54
  br label %61

61:                                               ; preds = %60, %47
  br label %62

62:                                               ; preds = %61
  %63 = load i32, i32* %5, align 4
  %64 = add nsw i32 %63, 1
  store i32 %64, i32* %5, align 4
  br label %7

65:                                               ; preds = %7
  %66 = load i32, i32* %3, align 4
  %67 = load i32, i32* %4, align 4
  %68 = add nsw i32 %67, %66
  store i32 %68, i32* %4, align 4
  %69 = load i32, i32* %4, align 4
  %70 = call i32 (i8*, ...) @printf(i8* getelementptr inbounds ([4 x i8], [4 x i8]* @.str.1, i64 0, i64 0), i32 %69)
  ret void
}

declare dso_local i32 @__isoc99_scanf(i8*, ...) #1

declare dso_local i32 @printf(i8*, ...) #1


!llvm.module.flags = !{!0}
!llvm.ident = !{!1}

!0 = !{i32 1, !"wchar_size", i32 4}
!1 = !{!"clang version 10.0.0-4ubuntu1 "}
